target datalayout = "e-m:e-p270:32:32-p271:32:32-p272:64:64-i64:64-i128:128-f80:128-n8:16:32:64-S128"
target triple = "x86_64-pc-linux-gnu"

%"class.std::__cxx11::basic_string" = type { %"struct.std::__cxx11::basic_string<char>::_Alloc_hider", i64, %union.anon }
%"struct.std::__cxx11::basic_string<char>::_Alloc_hider" = type { ptr }
%union.anon = type { i64, [8 x i8] }
%"class.testing::internal::Random" = type { i32 }
%"class.testing::internal::FilePath" = type { %"class.std::__cxx11::basic_string" }
%"class.testing::internal::UnitTestImpl" = type <{ ptr, ptr, %"class.testing::internal::FilePath", %"class.testing::internal::DefaultGlobalTestPartResultReporter", %"class.testing::internal::DefaultPerThreadTestPartResultReporter", ptr, [8 x i8], %"class.testing::internal::ThreadLocal", %"class.std::vector", %"class.std::vector.3", %"class.std::vector.8", %"class.testing::internal::ParameterizedTestCaseRegistry", i8, [3 x i8], i32, ptr, ptr, %"class.testing::TestResult", %"class.testing::TestEventListeners", ptr, i8, [3 x i8], i32, %"class.testing::internal::Random", [4 x i8], i64, i64, %"class.testing::internal::scoped_ptr.28", %"class.testing::internal::scoped_ptr.29", %"class.testing::internal::ThreadLocal.30", i8, [7 x i8] }>
%"class.testing::internal::DefaultGlobalTestPartResultReporter" = type { %"class.testing::TestPartResultReporterInterface", ptr }
%"class.testing::TestPartResultReporterInterface" = type { ptr }
%"class.testing::internal::DefaultPerThreadTestPartResultReporter" = type { %"class.testing::TestPartResultReporterInterface", ptr }
%"class.testing::internal::ThreadLocal" = type { ptr }
%"class.std::vector" = type { %"struct.std::_Vector_base" }
%"struct.std::_Vector_base" = type { %"struct.std::_Vector_base<testing::Environment *, std::allocator<testing::Environment *>>::_Vector_impl" }
%"struct.std::_Vector_base<testing::Environment *, std::allocator<testing::Environment *>>::_Vector_impl" = type { %"struct.std::_Vector_base<testing::Environment *, std::allocator<testing::Environment *>>::_Vector_impl_data" }
%"struct.std::_Vector_base<testing::Environment *, std::allocator<testing::Environment *>>::_Vector_impl_data" = type { ptr, ptr, ptr }
%"class.std::vector.3" = type { %"struct.std::_Vector_base.4" }
%"struct.std::_Vector_base.4" = type { %"struct.std::_Vector_base<testing::TestCase *, std::allocator<testing::TestCase *>>::_Vector_impl" }
%"struct.std::_Vector_base<testing::TestCase *, std::allocator<testing::TestCase *>>::_Vector_impl" = type { %"struct.std::_Vector_base<testing::TestCase *, std::allocator<testing::TestCase *>>::_Vector_impl_data" }
%"struct.std::_Vector_base<testing::TestCase *, std::allocator<testing::TestCase *>>::_Vector_impl_data" = type { ptr, ptr, ptr }
%"class.std::vector.8" = type { %"struct.std::_Vector_base.9" }
%"struct.std::_Vector_base.9" = type { %"struct.std::_Vector_base<int, std::allocator<int>>::_Vector_impl" }
%"struct.std::_Vector_base<int, std::allocator<int>>::_Vector_impl" = type { %"struct.std::_Vector_base<int, std::allocator<int>>::_Vector_impl_data" }
%"struct.std::_Vector_base<int, std::allocator<int>>::_Vector_impl_data" = type { ptr, ptr, ptr }
%"class.testing::internal::ParameterizedTestCaseRegistry" = type { %"class.std::vector.13" }
%"class.std::vector.13" = type { %"struct.std::_Vector_base.14" }
%"struct.std::_Vector_base.14" = type { %"struct.std::_Vector_base<testing::internal::ParameterizedTestCaseInfoBase *, std::allocator<testing::internal::ParameterizedTestCaseInfoBase *>>::_Vector_impl" }
%"struct.std::_Vector_base<testing::internal::ParameterizedTestCaseInfoBase *, std::allocator<testing::internal::ParameterizedTestCaseInfoBase *>>::_Vector_impl" = type { %"struct.std::_Vector_base<testing::internal::ParameterizedTestCaseInfoBase *, std::allocator<testing::internal::ParameterizedTestCaseInfoBase *>>::_Vector_impl_data" }
%"struct.std::_Vector_base<testing::internal::ParameterizedTestCaseInfoBase *, std::allocator<testing::internal::ParameterizedTestCaseInfoBase *>>::_Vector_impl_data" = type { ptr, ptr, ptr }
%"class.testing::TestResult" = type { [8 x i8], %"class.std::vector.18", %"class.std::vector.23", i32, i64 }
%"class.std::vector.18" = type { %"struct.std::_Vector_base.19" }
%"struct.std::_Vector_base.19" = type { %"struct.std::_Vector_base<testing::TestPartResult, std::allocator<testing::TestPartResult>>::_Vector_impl" }
%"struct.std::_Vector_base<testing::TestPartResult, std::allocator<testing::TestPartResult>>::_Vector_impl" = type { %"struct.std::_Vector_base<testing::TestPartResult, std::allocator<testing::TestPartResult>>::_Vector_impl_data" }
%"struct.std::_Vector_base<testing::TestPartResult, std::allocator<testing::TestPartResult>>::_Vector_impl_data" = type { ptr, ptr, ptr }
%"class.std::vector.23" = type { %"struct.std::_Vector_base.24" }
%"struct.std::_Vector_base.24" = type { %"struct.std::_Vector_base<testing::TestProperty, std::allocator<testing::TestProperty>>::_Vector_impl" }
%"struct.std::_Vector_base<testing::TestProperty, std::allocator<testing::TestProperty>>::_Vector_impl" = type { %"struct.std::_Vector_base<testing::TestProperty, std::allocator<testing::TestProperty>>::_Vector_impl_data" }
%"struct.std::_Vector_base<testing::TestProperty, std::allocator<testing::TestProperty>>::_Vector_impl_data" = type { ptr, ptr, ptr }
%"class.testing::TestEventListeners" = type { ptr, ptr, ptr }
%"class.testing::internal::scoped_ptr.28" = type { ptr }
%"class.testing::internal::scoped_ptr.29" = type { ptr }
%"class.testing::internal::ThreadLocal.30" = type { %"class.std::vector.31" }
%"class.std::vector.31" = type { %"struct.std::_Vector_base.32" }
%"struct.std::_Vector_base.32" = type { %"struct.std::_Vector_base<testing::internal::TraceInfo, std::allocator<testing::internal::TraceInfo>>::_Vector_impl" }
%"struct.std::_Vector_base<testing::internal::TraceInfo, std::allocator<testing::internal::TraceInfo>>::_Vector_impl" = type { %"struct.std::_Vector_base<testing::internal::TraceInfo, std::allocator<testing::internal::TraceInfo>>::_Vector_impl_data" }
%"struct.std::_Vector_base<testing::internal::TraceInfo, std::allocator<testing::internal::TraceInfo>>::_Vector_impl_data" = type { ptr, ptr, ptr }
%"class.testing::internal::scoped_ptr.48" = type { ptr }
%"class.testing::TestCase" = type { ptr, %"class.std::__cxx11::basic_string", %"class.testing::internal::scoped_ptr.48", %"class.std::vector.49", %"class.std::vector.8", ptr, ptr, i8, i64, %"class.testing::TestResult" }
%"class.std::vector.49" = type { %"struct.std::_Vector_base.50" }
%"struct.std::_Vector_base.50" = type { %"struct.std::_Vector_base<testing::TestInfo *, std::allocator<testing::TestInfo *>>::_Vector_impl" }
%"struct.std::_Vector_base<testing::TestInfo *, std::allocator<testing::TestInfo *>>::_Vector_impl" = type { %"struct.std::_Vector_base<testing::TestInfo *, std::allocator<testing::TestInfo *>>::_Vector_impl_data" }
%"struct.std::_Vector_base<testing::TestInfo *, std::allocator<testing::TestInfo *>>::_Vector_impl_data" = type { ptr, ptr, ptr }

; Function Attrs: mustprogress nounwind uwtable
define linkonce_odr dso_local noundef i64 @_ZNKSt6vectorIiSaIiEE4sizeEv(ptr noundef nonnull align 8 dereferenceable(24) %0) #6 comdat align 2 {
  %2 = alloca ptr, align 8
  store ptr %0, ptr %2, align 8
  %3 = load ptr, ptr %2, align 8
  %4 = getelementptr inbounds nuw %"struct.std::_Vector_base.9", ptr %3, i32 0, i32 0
  %5 = getelementptr inbounds nuw %"struct.std::_Vector_base<int, std::allocator<int>>::_Vector_impl_data", ptr %4, i32 0, i32 1
  %6 = load ptr, ptr %5, align 8
  %7 = getelementptr inbounds nuw %"struct.std::_Vector_base.9", ptr %3, i32 0, i32 0
  %8 = getelementptr inbounds nuw %"struct.std::_Vector_base<int, std::allocator<int>>::_Vector_impl_data", ptr %7, i32 0, i32 0
  %9 = load ptr, ptr %8, align 8
  %10 = ptrtoint ptr %6 to i64
  %11 = ptrtoint ptr %9 to i64
  %12 = sub i64 %10, %11
  %13 = sdiv exact i64 %12, 4
  ret i64 %13
}

; Function Attrs: inlinehint mustprogress uwtable
define linkonce_odr hidden void @_ZN7testing8internal7ShuffleIiEEvPNS0_6RandomEPSt6vectorIT_SaIS5_EE(ptr noundef %0, ptr noundef %1) #7 comdat {
  %3 = alloca ptr, align 8
  %4 = alloca ptr, align 8
  store ptr %0, ptr %3, align 8
  store ptr %1, ptr %4, align 8
  %5 = load ptr, ptr %3, align 8
  %6 = load ptr, ptr %4, align 8
  %7 = call noundef i64 @_ZNKSt6vectorIiSaIiEE4sizeEv(ptr noundef nonnull align 8 dereferenceable(24) %6) #3
  %8 = trunc i64 %7 to i32
  %9 = load ptr, ptr %4, align 8
  call void @_ZN7testing8internal12ShuffleRangeIiEEvPNS0_6RandomEiiPSt6vectorIT_SaIS5_EE(ptr noundef %5, i32 noundef 0, i32 noundef %8, ptr noundef %9)
  ret void
}

; Function Attrs: mustprogress uwtable
define hidden void @_ZN7testing8TestCase12ShuffleTestsEPNS_8internal6RandomE(ptr noundef nonnull align 8 dereferenceable(200) %0, ptr noundef %1) #4 align 2 {
  %3 = alloca ptr, align 8
  %4 = alloca ptr, align 8
  store ptr %0, ptr %3, align 8
  store ptr %1, ptr %4, align 8
  %5 = load ptr, ptr %3, align 8
  %6 = load ptr, ptr %4, align 8
  %7 = getelementptr inbounds nuw %"class.testing::TestCase", ptr %5, i32 0, i32 4
  call void @_ZN7testing8internal7ShuffleIiEEvPNS0_6RandomEPSt6vectorIT_SaIS5_EE(ptr noundef %6, ptr noundef %7)
  ret void
}

; Function Attrs: mustprogress nounwind uwtable
define linkonce_odr hidden noundef nonnull align 8 dereferenceable(8) ptr @_ZNSt6vectorIPN7testing8TestCaseESaIS2_EEixEm(ptr noundef nonnull align 8 dereferenceable(24) %0, i64 noundef %1) #6 comdat align 2 {
  %3 = alloca ptr, align 8
  %4 = alloca i64, align 8
  store ptr %0, ptr %3, align 8
  store i64 %1, ptr %4, align 8
  %5 = load ptr, ptr %3, align 8
  %6 = getelementptr inbounds nuw %"struct.std::_Vector_base.4", ptr %5, i32 0, i32 0
  %7 = getelementptr inbounds nuw %"struct.std::_Vector_base<testing::TestCase *, std::allocator<testing::TestCase *>>::_Vector_impl_data", ptr %6, i32 0, i32 0
  %8 = load ptr, ptr %7, align 8
  %9 = load i64, ptr %4, align 8
  %10 = getelementptr inbounds nuw ptr, ptr %8, i64 %9
  ret ptr %10
}

; Function Attrs: mustprogress nounwind uwtable
define linkonce_odr hidden noundef i64 @_ZNKSt6vectorIPN7testing8TestCaseESaIS2_EE4sizeEv(ptr noundef nonnull align 8 dereferenceable(24) %0) #6 comdat align 2 {
  %2 = alloca ptr, align 8
  store ptr %0, ptr %2, align 8
  %3 = load ptr, ptr %2, align 8
  %4 = getelementptr inbounds nuw %"struct.std::_Vector_base.4", ptr %3, i32 0, i32 0
  %5 = getelementptr inbounds nuw %"struct.std::_Vector_base<testing::TestCase *, std::allocator<testing::TestCase *>>::_Vector_impl_data", ptr %4, i32 0, i32 1
  %6 = load ptr, ptr %5, align 8
  %7 = getelementptr inbounds nuw %"struct.std::_Vector_base.4", ptr %3, i32 0, i32 0
  %8 = getelementptr inbounds nuw %"struct.std::_Vector_base<testing::TestCase *, std::allocator<testing::TestCase *>>::_Vector_impl_data", ptr %7, i32 0, i32 0
  %9 = load ptr, ptr %8, align 8
  %10 = ptrtoint ptr %6 to i64
  %11 = ptrtoint ptr %9 to i64
  %12 = sub i64 %10, %11
  %13 = sdiv exact i64 %12, 8
  ret i64 %13
}

; Function Attrs: mustprogress nounwind uwtable
define linkonce_odr hidden noundef ptr @_ZN7testing8internal12UnitTestImpl6randomEv(ptr noundef nonnull align 8 dereferenceable(401) %0) #6 comdat align 2 {
  %2 = alloca ptr, align 8
  store ptr %0, ptr %2, align 8
  %3 = load ptr, ptr %2, align 8
  %4 = getelementptr inbounds nuw %"class.testing::internal::UnitTestImpl", ptr %3, i32 0, i32 23
  ret ptr %4
}

; Function Attrs: mustprogress uwtable
define hidden void @_ZN7testing8internal12UnitTestImpl12ShuffleTestsEv(ptr noundef nonnull align 8 dereferenceable(401) %0) #4 align 2 {
  %2 = alloca ptr, align 8
  %3 = alloca i64, align 8
  store ptr %0, ptr %2, align 8
  %4 = load ptr, ptr %2, align 8
  %5 = call noundef ptr @_ZN7testing8internal12UnitTestImpl6randomEv(ptr noundef nonnull align 8 dereferenceable(401) %4)
  %6 = getelementptr inbounds nuw %"class.testing::internal::UnitTestImpl", ptr %4, i32 0, i32 14
  %7 = load i32, ptr %6, align 4
  %8 = add nsw i32 %7, 1
  %9 = getelementptr inbounds nuw %"class.testing::internal::UnitTestImpl", ptr %4, i32 0, i32 10
  call void @_ZN7testing8internal12ShuffleRangeIiEEvPNS0_6RandomEiiPSt6vectorIT_SaIS5_EE(ptr noundef %5, i32 noundef 0, i32 noundef %8, ptr noundef %9)
  %10 = call noundef ptr @_ZN7testing8internal12UnitTestImpl6randomEv(ptr noundef nonnull align 8 dereferenceable(401) %4)
  %11 = getelementptr inbounds nuw %"class.testing::internal::UnitTestImpl", ptr %4, i32 0, i32 14
  %12 = load i32, ptr %11, align 4
  %13 = add nsw i32 %12, 1
  %14 = getelementptr inbounds nuw %"class.testing::internal::UnitTestImpl", ptr %4, i32 0, i32 9
  %15 = call noundef i64 @_ZNKSt6vectorIPN7testing8TestCaseESaIS2_EE4sizeEv(ptr noundef nonnull align 8 dereferenceable(24) %14) #3
  %16 = trunc i64 %15 to i32
  %17 = getelementptr inbounds nuw %"class.testing::internal::UnitTestImpl", ptr %4, i32 0, i32 10
  call void @_ZN7testing8internal12ShuffleRangeIiEEvPNS0_6RandomEiiPSt6vectorIT_SaIS5_EE(ptr noundef %10, i32 noundef %13, i32 noundef %16, ptr noundef %17)
  call void @llvm.lifetime.start.p0(i64 8, ptr %3) #3
  store i64 0, ptr %3, align 8
  br label %18

18:                                               ; preds = %30, %1
  %19 = load i64, ptr %3, align 8
  %20 = getelementptr inbounds nuw %"class.testing::internal::UnitTestImpl", ptr %4, i32 0, i32 9
  %21 = call noundef i64 @_ZNKSt6vectorIPN7testing8TestCaseESaIS2_EE4sizeEv(ptr noundef nonnull align 8 dereferenceable(24) %20) #3
  %22 = icmp ult i64 %19, %21
  br i1 %22, label %24, label %23

23:                                               ; preds = %18
  call void @llvm.lifetime.end.p0(i64 8, ptr %3) #3
  br label %33

24:                                               ; preds = %18
  %25 = getelementptr inbounds nuw %"class.testing::internal::UnitTestImpl", ptr %4, i32 0, i32 9
  %26 = load i64, ptr %3, align 8
  %27 = call noundef nonnull align 8 dereferenceable(8) ptr @_ZNSt6vectorIPN7testing8TestCaseESaIS2_EEixEm(ptr noundef nonnull align 8 dereferenceable(24) %25, i64 noundef %26) #3
  %28 = load ptr, ptr %27, align 8
  %29 = call noundef ptr @_ZN7testing8internal12UnitTestImpl6randomEv(ptr noundef nonnull align 8 dereferenceable(401) %4)
  call void @_ZN7testing8TestCase12ShuffleTestsEPNS_8internal6RandomE(ptr noundef nonnull align 8 dereferenceable(200) %28, ptr noundef %29)
  br label %30

30:                                               ; preds = %24
  %31 = load i64, ptr %3, align 8
  %32 = add i64 %31, 1
  store i64 %32, ptr %3, align 8
  br label %18, !llvm.loop !58

33:                                               ; preds = %23
  ret void
}