; Function Attrs: mustprogress uwtable
define hidden void @_ZN7testing8internal12UnitTestImpl12ShuffleTestsEv(ptr noundef nonnull align 8 dereferenceable(401) %0) local_unnamed_addr #3 align 2 {
  %2 = getelementptr inbounds nuw i8, ptr %0, i64 336
  %3 = getelementptr inbounds nuw i8, ptr %0, i64 204
  %4 = load i32, ptr %3, align 4
  %5 = add nsw i32 %4, 1
  %6 = getelementptr inbounds nuw i8, ptr %0, i64 152
  tail call void @_ZN7testing8internal12ShuffleRangeIiEEvPNS0_6RandomEiiPSt6vectorIT_SaIS5_EE(ptr noundef nonnull %2, i32 noundef 0, i32 noundef %5, ptr noundef nonnull %6)
  %7 = load i32, ptr %3, align 4
  %8 = add nsw i32 %7, 1
  %9 = getelementptr inbounds nuw i8, ptr %0, i64 128
  %10 = getelementptr inbounds nuw i8, ptr %0, i64 136
  %11 = load ptr, ptr %10, align 8
  %12 = load ptr, ptr %9, align 8
  %13 = ptrtoint ptr %11 to i64
  %14 = ptrtoint ptr %12 to i64
  %15 = sub i64 %13, %14
  %16 = lshr exact i64 %15, 3
  %17 = trunc i64 %16 to i32
  tail call void @_ZN7testing8internal12ShuffleRangeIiEEvPNS0_6RandomEiiPSt6vectorIT_SaIS5_EE(ptr noundef nonnull %2, i32 noundef %8, i32 noundef %17, ptr noundef nonnull %6)
  %18 = load ptr, ptr %10, align 8
  %19 = load ptr, ptr %9, align 8
  %.not = icmp eq ptr %18, %19
  br i1 %.not, label %._crit_edge, label %.lr.ph

._crit_edge:                                      ; preds = %.lr.ph, %1
  ret void

.lr.ph:                                           ; preds = %1, %.lr.ph
  %20 = phi ptr [ %34, %.lr.ph ], [ %19, %1 ]
  %.03 = phi i64 [ %32, %.lr.ph ], [ 0, %1 ]
  %21 = getelementptr inbounds nuw ptr, ptr %20, i64 %.03
  %22 = load ptr, ptr %21, align 8
  %23 = getelementptr inbounds nuw i8, ptr %22, i64 72
  %24 = getelementptr inbounds nuw i8, ptr %22, i64 80
  %25 = load ptr, ptr %24, align 8
  %26 = load ptr, ptr %23, align 8
  %27 = ptrtoint ptr %25 to i64
  %28 = ptrtoint ptr %26 to i64
  %29 = sub i64 %27, %28
  %30 = lshr exact i64 %29, 2
  %31 = trunc i64 %30 to i32
  tail call void @_ZN7testing8internal12ShuffleRangeIiEEvPNS0_6RandomEiiPSt6vectorIT_SaIS5_EE(ptr noundef nonnull %2, i32 noundef 0, i32 noundef %31, ptr noundef nonnull %23)
  %32 = add nuw i64 %.03, 1
  %33 = load ptr, ptr %10, align 8
  %34 = load ptr, ptr %9, align 8
  %35 = ptrtoint ptr %33 to i64
  %36 = ptrtoint ptr %34 to i64
  %37 = sub i64 %35, %36
  %38 = ashr exact i64 %37, 3
  %39 = icmp ult i64 %32, %38
  br i1 %39, label %.lr.ph, label %._crit_edge, !llvm.loop !404
}